GAS LISTING /tmp/ccHoNJuw.s 			page 1


   1               		.file	"stdusart0.c"
   2               	__SREG__ = 0x3f
   3               	__SP_H__ = 0x3e
   4               	__SP_L__ = 0x3d
   5               	__CCP__  = 0x34
   6               	__tmp_reg__ = 0
   7               	__zero_reg__ = 1
   8               		.global __do_copy_data
   9               		.global __do_clear_bss
  10               		.stabs	"/home/robotdude/Projects/AVR_Projects/fatexplore/",100,0,2,.Ltext0
  11               		.stabs	"stdusart0.c",100,0,2,.Ltext0
  12               		.text
  13               	.Ltext0:
  14               		.stabs	"gcc2_compiled.",60,0,0,0
  15               		.stabs	"int:t(0,1)=r(0,1);-32768;32767;",128,0,1,0
  16               		.stabs	"char:t(0,2)=@s8;r(0,2);0;255;",128,0,1,0
  17               		.stabs	"long int:t(0,3)=@s32;r(0,3);020000000000;017777777777;",128,0,1,0
  18               		.stabs	"unsigned int:t(0,4)=r(0,4);0;0177777;",128,0,1,0
  19               		.stabs	"long unsigned int:t(0,5)=@s32;r(0,5);0;037777777777;",128,0,1,0
  20               		.stabs	"long long int:t(0,6)=@s64;r(0,6);01000000000000000000000;0777777777777777777777;",128,0,1,
  21               		.stabs	"long long unsigned int:t(0,7)=@s64;r(0,7);0;01777777777777777777777;",128,0,1,0
  22               		.stabs	"short int:t(0,8)=r(0,8);-32768;32767;",128,0,1,0
  23               		.stabs	"short unsigned int:t(0,9)=r(0,9);0;0177777;",128,0,1,0
  24               		.stabs	"signed char:t(0,10)=@s8;r(0,10);-128;127;",128,0,1,0
  25               		.stabs	"unsigned char:t(0,11)=@s8;r(0,11);0;255;",128,0,1,0
  26               		.stabs	"float:t(0,12)=r(0,1);4;0;",128,0,1,0
  27               		.stabs	"double:t(0,13)=r(0,1);4;0;",128,0,1,0
  28               		.stabs	"long double:t(0,14)=r(0,1);4;0;",128,0,1,0
  29               		.stabs	"void:t(0,15)=(0,15)",128,0,1,0
  30               		.stabs	"stdusart0.h",130,0,0,0
  31               		.stabs	"/usr/lib/gcc/avr/4.3.3/../../../avr/include/avr/io.h",130,0,0,0
  32               		.stabs	"/usr/lib/gcc/avr/4.3.3/../../../avr/include/avr/sfr_defs.h",130,0,0,0
  33               		.stabs	"/usr/lib/gcc/avr/4.3.3/../../../avr/include/inttypes.h",130,0,0,0
  34               		.stabs	"/usr/lib/gcc/avr/4.3.3/../../../avr/include/stdint.h",130,0,0,0
  35               		.stabs	"int8_t:t(5,1)=(0,10)",128,0,121,0
  36               		.stabs	"uint8_t:t(5,2)=(0,11)",128,0,122,0
  37               		.stabs	"int16_t:t(5,3)=(0,1)",128,0,123,0
  38               		.stabs	"uint16_t:t(5,4)=(0,4)",128,0,124,0
  39               		.stabs	"int32_t:t(5,5)=(0,3)",128,0,125,0
  40               		.stabs	"uint32_t:t(5,6)=(0,5)",128,0,126,0
  41               		.stabs	"int64_t:t(5,7)=(0,6)",128,0,128,0
  42               		.stabs	"uint64_t:t(5,8)=(0,7)",128,0,129,0
  43               		.stabs	"intptr_t:t(5,9)=(5,3)",128,0,142,0
  44               		.stabs	"uintptr_t:t(5,10)=(5,4)",128,0,147,0
  45               		.stabs	"int_least8_t:t(5,11)=(5,1)",128,0,159,0
  46               		.stabs	"uint_least8_t:t(5,12)=(5,2)",128,0,164,0
  47               		.stabs	"int_least16_t:t(5,13)=(5,3)",128,0,169,0
  48               		.stabs	"uint_least16_t:t(5,14)=(5,4)",128,0,174,0
  49               		.stabs	"int_least32_t:t(5,15)=(5,5)",128,0,179,0
  50               		.stabs	"uint_least32_t:t(5,16)=(5,6)",128,0,184,0
  51               		.stabs	"int_least64_t:t(5,17)=(5,7)",128,0,192,0
  52               		.stabs	"uint_least64_t:t(5,18)=(5,8)",128,0,199,0
  53               		.stabs	"int_fast8_t:t(5,19)=(5,1)",128,0,213,0
  54               		.stabs	"uint_fast8_t:t(5,20)=(5,2)",128,0,218,0
  55               		.stabs	"int_fast16_t:t(5,21)=(5,3)",128,0,223,0
  56               		.stabs	"uint_fast16_t:t(5,22)=(5,4)",128,0,228,0
  57               		.stabs	"int_fast32_t:t(5,23)=(5,5)",128,0,233,0
GAS LISTING /tmp/ccHoNJuw.s 			page 2


  58               		.stabs	"uint_fast32_t:t(5,24)=(5,6)",128,0,238,0
  59               		.stabs	"int_fast64_t:t(5,25)=(5,7)",128,0,246,0
  60               		.stabs	"uint_fast64_t:t(5,26)=(5,8)",128,0,253,0
  61               		.stabs	"intmax_t:t(5,27)=(5,7)",128,0,273,0
  62               		.stabs	"uintmax_t:t(5,28)=(5,8)",128,0,278,0
  63               		.stabn	162,0,0,0
  64               		.stabs	"int_farptr_t:t(4,1)=(5,5)",128,0,77,0
  65               		.stabs	"uint_farptr_t:t(4,2)=(5,6)",128,0,81,0
  66               		.stabn	162,0,0,0
  67               		.stabn	162,0,0,0
  68               		.stabs	"/usr/lib/gcc/avr/4.3.3/../../../avr/include/avr/fuse.h",130,0,0,0
  69               		.stabs	"__fuse_t:t(6,1)=(6,2)=s3low:(0,11),0,8;high:(0,11),8,8;extended:(0,11),16,8;;",128,0,219,0
  70               		.stabn	162,0,0,0
  71               		.stabn	162,0,0,0
  72               		.stabn	162,0,0,0
  73               		.stabs	"/usr/lib/gcc/avr/4.3.3/../../../avr/include/stdio.h",130,0,0,0
  74               		.stabs	"/usr/lib/gcc/avr/4.3.3/include/stdarg.h",130,0,0,0
  75               		.stabs	"__gnuc_va_list:t(8,1)=(8,2)=*(0,15)",128,0,43,0
  76               		.stabs	"va_list:t(8,3)=(8,1)",128,0,105,0
  77               		.stabn	162,0,0,0
  78               		.stabs	"/usr/lib/gcc/avr/4.3.3/include/stddef.h",130,0,0,0
  79               		.stabs	"size_t:t(9,1)=(0,4)",128,0,214,0
  80               		.stabn	162,0,0,0
  81               		.stabs	"__file:T(7,1)=s14buf:(7,2)=*(0,2),0,16;unget:(0,11),16,8;flags:(5,2),24,8;size:(0,1),32,16
  82               		.stabn	162,0,0,0
  83               		.stabs	"txb0:F(0,1)",36,0,28,txb0
  84               		.stabs	"c:P(0,2)",64,0,28,25
  85               	.global	txb0
  86               		.type	txb0, @function
  87               	txb0:
  88               		.stabd	46,0,0
   1:stdusart0.c   **** /*
   2:stdusart0.c   ****  *      stdusart0.c
   3:stdusart0.c   ****  *      
   4:stdusart0.c   ****  *      Copyright 2009 Nathaniel Robert Lewis <linux.robotdude@gmail.com>
   5:stdusart0.c   ****  *      
   6:stdusart0.c   ****  *      This program is free software; you can redistribute it and/or modify
   7:stdusart0.c   ****  *      it under the terms of the GNU General Public License as published by
   8:stdusart0.c   ****  *      the Free Software Foundation; either version 2 of the License, or
   9:stdusart0.c   ****  *      (at your option) any later version.
  10:stdusart0.c   ****  *      
  11:stdusart0.c   ****  *      This program is distributed in the hope that it will be useful,
  12:stdusart0.c   ****  *      but WITHOUT ANY WARRANTY; without even the implied warranty of
  13:stdusart0.c   ****  *      MERCHANTABILITY or FITNESS FOR A PARTICULAR PURPOSE.  See the
  14:stdusart0.c   ****  *      GNU General Public License for more details.
  15:stdusart0.c   ****  *      
  16:stdusart0.c   ****  *      You should have received a copy of the GNU General Public License
  17:stdusart0.c   ****  *      along with this program; if not, write to the Free Software
  18:stdusart0.c   ****  *      Foundation, Inc., 51 Franklin Street, Fifth Floor, Boston,
  19:stdusart0.c   ****  *      MA 02110-1301, USA.
  20:stdusart0.c   ****  * 
  21:stdusart0.c   ****  *      This header is a non buffered uart, but it enables you to use the printf
  22:stdusart0.c   ****  *      and scanf commands as you do in PC programming from the stdio.h header
  23:stdusart0.c   ****  */
  24:stdusart0.c   ****  
  25:stdusart0.c   ****  #include "stdusart0.h"
  26:stdusart0.c   ****  #include <stdio.h>
GAS LISTING /tmp/ccHoNJuw.s 			page 3


  27:stdusart0.c   **** 
  28:stdusart0.c   **** int txb0 ( char c ) {
  89               		.stabn	68,0,28,.LM0-.LFBB1
  90               	.LM0:
  91               	.LFBB1:
  92               	/* prologue: function */
  93               	/* frame size = 0 */
  94 0000 982F      		mov r25,r24
  95               	.L2:
  29:stdusart0.c   **** 	while ( !( UCSR0A & (1<<UDRE0)) );         //wait for the tx buffer th be ready
  96               		.stabn	68,0,29,.LM1-.LFBB1
  97               	.LM1:
  98 0002 8091 C000 		lds r24,192
  99 0006 85FF      		sbrs r24,5
 100 0008 00C0      		rjmp .L2
  30:stdusart0.c   **** 	UDR0 = c;                                  //start transmission of c
 101               		.stabn	68,0,30,.LM2-.LFBB1
 102               	.LM2:
 103 000a 9093 C600 		sts 198,r25
  31:stdusart0.c   **** 	return 0;      
  32:stdusart0.c   **** }
 104               		.stabn	68,0,32,.LM3-.LFBB1
 105               	.LM3:
 106 000e 80E0      		ldi r24,lo8(0)
 107 0010 90E0      		ldi r25,hi8(0)
 108               	/* epilogue start */
 109 0012 0895      		ret
 110               		.size	txb0, .-txb0
 111               	.Lscope1:
 112               		.stabs	"",36,0,0,.Lscope1-.LFBB1
 113               		.stabd	78,0,0
 114               		.stabs	"rxb0:F(0,1)",36,0,34,rxb0
 115               	.global	rxb0
 116               		.type	rxb0, @function
 117               	rxb0:
 118               		.stabd	46,0,0
  33:stdusart0.c   **** 
  34:stdusart0.c   **** int rxb0 ( void ) {
 119               		.stabn	68,0,34,.LM4-.LFBB2
 120               	.LM4:
 121               	.LFBB2:
 122               	/* prologue: function */
 123               	/* frame size = 0 */
 124               	.L6:
  35:stdusart0.c   **** 	while( !(UCSR0A & (1<<RXC0)));             //wait for there to be data
 125               		.stabn	68,0,35,.LM5-.LFBB2
 126               	.LM5:
 127 0014 8091 C000 		lds r24,192
 128 0018 87FF      		sbrs r24,7
 129 001a 00C0      		rjmp .L6
  36:stdusart0.c   ****     return UDR0;                               //return the data
 130               		.stabn	68,0,36,.LM6-.LFBB2
 131               	.LM6:
 132 001c 8091 C600 		lds r24,198
  37:stdusart0.c   **** }
 133               		.stabn	68,0,37,.LM7-.LFBB2
 134               	.LM7:
GAS LISTING /tmp/ccHoNJuw.s 			page 4


 135 0020 90E0      		ldi r25,lo8(0)
 136               	/* epilogue start */
 137 0022 0895      		ret
 138               		.size	rxb0, .-rxb0
 139               	.Lscope2:
 140               		.stabs	"",36,0,0,.Lscope2-.LFBB2
 141               		.stabd	78,0,0
 142               		.stabs	"init_stdusart0:F(0,15)",36,0,40,init_stdusart0
 143               		.stabs	"ubrr:P(5,4)",64,0,40,24
 144               		.stabs	"specs:P(5,2)",64,0,40,22
 145               	.global	init_stdusart0
 146               		.type	init_stdusart0, @function
 147               	init_stdusart0:
 148               		.stabd	46,0,0
  38:stdusart0.c   **** 	
  39:stdusart0.c   **** 
  40:stdusart0.c   **** void init_stdusart0 (uint16_t ubrr, uint8_t specs) {
 149               		.stabn	68,0,40,.LM8-.LFBB3
 150               	.LM8:
 151               	.LFBB3:
 152               	/* prologue: function */
 153               	/* frame size = 0 */
  41:stdusart0.c   **** 	UBRR0 = ubrr;                              //set the UBRR register            
 154               		.stabn	68,0,41,.LM9-.LFBB3
 155               	.LM9:
 156 0024 9093 C500 		sts (196)+1,r25
 157 0028 8093 C400 		sts 196,r24
  42:stdusart0.c   ****     UCSR0B = (1<<RXCIE0)|(1<<RXEN0)|(1<<TXEN0);//enable transmitting and receiving
 158               		.stabn	68,0,42,.LM10-.LFBB3
 159               	.LM10:
 160 002c 88E9      		ldi r24,lo8(-104)
 161 002e 8093 C100 		sts 193,r24
  43:stdusart0.c   ****     UCSR0C = specs;                            //set the settings to what you wanted
 162               		.stabn	68,0,43,.LM11-.LFBB3
 163               	.LM11:
 164 0032 6093 C200 		sts 194,r22
  44:stdusart0.c   ****     fdevopen((void*)txb0, (void*)rxb0);	       //open the stdin and stdout connections for stdio	
 165               		.stabn	68,0,44,.LM12-.LFBB3
 166               	.LM12:
 167 0036 80E0      		ldi r24,lo8(gs(txb0))
 168 0038 90E0      		ldi r25,hi8(gs(txb0))
 169 003a 60E0      		ldi r22,lo8(gs(rxb0))
 170 003c 70E0      		ldi r23,hi8(gs(rxb0))
 171 003e 0E94 0000 		call fdevopen
 172               	/* epilogue start */
  45:stdusart0.c   **** }
 173               		.stabn	68,0,45,.LM13-.LFBB3
 174               	.LM13:
 175 0042 0895      		ret
 176               		.size	init_stdusart0, .-init_stdusart0
 177               	.Lscope3:
 178               		.stabs	"",36,0,0,.Lscope3-.LFBB3
 179               		.stabd	78,0,0
 180               		.stabs	"",100,0,0,.Letext0
 181               	.Letext0:
GAS LISTING /tmp/ccHoNJuw.s 			page 5


DEFINED SYMBOLS
                            *ABS*:0000000000000000 stdusart0.c
     /tmp/ccHoNJuw.s:2      *ABS*:000000000000003f __SREG__
     /tmp/ccHoNJuw.s:3      *ABS*:000000000000003e __SP_H__
     /tmp/ccHoNJuw.s:4      *ABS*:000000000000003d __SP_L__
     /tmp/ccHoNJuw.s:5      *ABS*:0000000000000034 __CCP__
     /tmp/ccHoNJuw.s:6      *ABS*:0000000000000000 __tmp_reg__
     /tmp/ccHoNJuw.s:7      *ABS*:0000000000000001 __zero_reg__
     /tmp/ccHoNJuw.s:87     .text:0000000000000000 txb0
     /tmp/ccHoNJuw.s:117    .text:0000000000000014 rxb0
     /tmp/ccHoNJuw.s:147    .text:0000000000000024 init_stdusart0

UNDEFINED SYMBOLS
__do_copy_data
__do_clear_bss
fdevopen
